target datalayout = "e-m:e-p270:32:32-p271:32:32-p272:64:64-i64:64-i128:128-f80:128-n8:16:32:64-S128"
target triple = "x86_64-pc-linux-gnu"

%struct.VC2TransformContext = type { ptr, i32, [7 x ptr] }

; Function Attrs: cold nounwind optsize uwtable
define i32 @ff_vc2enc_init_transforms(ptr noundef %0, i32 noundef %1, i32 noundef %2, i32 noundef %3, i32 noundef %4) #0 {
  %6 = alloca i32, align 4
  %7 = alloca ptr, align 8
  %8 = alloca i32, align 4
  %9 = alloca i32, align 4
  %10 = alloca i32, align 4
  %11 = alloca i32, align 4
  store ptr %0, ptr %7, align 8, !tbaa !4
  store i32 %1, ptr %8, align 4, !tbaa !9
  store i32 %2, ptr %9, align 4, !tbaa !9
  store i32 %3, ptr %10, align 4, !tbaa !9
  store i32 %4, ptr %11, align 4, !tbaa !9
  %12 = load ptr, ptr %7, align 8, !tbaa !4
  %13 = getelementptr inbounds nuw %struct.VC2TransformContext, ptr %12, i32 0, i32 2
  %14 = getelementptr inbounds [7 x ptr], ptr %13, i64 0, i64 0
  store ptr @vc2_subband_dwt_97, ptr %14, align 8, !tbaa !11
  %15 = load ptr, ptr %7, align 8, !tbaa !4
  %16 = getelementptr inbounds nuw %struct.VC2TransformContext, ptr %15, i32 0, i32 2
  %17 = getelementptr inbounds [7 x ptr], ptr %16, i64 0, i64 1
  store ptr @vc2_subband_dwt_53, ptr %17, align 8, !tbaa !11
  %18 = load ptr, ptr %7, align 8, !tbaa !4
  %19 = getelementptr inbounds nuw %struct.VC2TransformContext, ptr %18, i32 0, i32 2
  %20 = getelementptr inbounds [7 x ptr], ptr %19, i64 0, i64 3
  store ptr @vc2_subband_dwt_haar, ptr %20, align 8, !tbaa !11
  %21 = load ptr, ptr %7, align 8, !tbaa !4
  %22 = getelementptr inbounds nuw %struct.VC2TransformContext, ptr %21, i32 0, i32 2
  %23 = getelementptr inbounds [7 x ptr], ptr %22, i64 0, i64 4
  store ptr @vc2_subband_dwt_haar_shift, ptr %23, align 8, !tbaa !11
  %24 = load i32, ptr %8, align 4, !tbaa !9
  %25 = load i32, ptr %10, align 4, !tbaa !9
  %26 = add nsw i32 %24, %25
  %27 = load i32, ptr %9, align 4, !tbaa !9
  %28 = load i32, ptr %11, align 4, !tbaa !9
  %29 = add nsw i32 %27, %28
  %30 = mul nsw i32 %26, %29
  %31 = sext i32 %30 to i64
  %32 = call noalias ptr @av_calloc(i64 noundef %31, i64 noundef 4)
  %33 = load ptr, ptr %7, align 8, !tbaa !4
  %34 = getelementptr inbounds nuw %struct.VC2TransformContext, ptr %33, i32 0, i32 0
  store ptr %32, ptr %34, align 8, !tbaa !12
  %35 = load ptr, ptr %7, align 8, !tbaa !4
  %36 = getelementptr inbounds nuw %struct.VC2TransformContext, ptr %35, i32 0, i32 0
  %37 = load ptr, ptr %36, align 8, !tbaa !12
  %38 = icmp ne ptr %37, null
  br i1 %38, label %40, label %39

39:                                               ; preds = %5
  store i32 1, ptr %6, align 4
  br label %58

40:                                               ; preds = %5
  %41 = load i32, ptr %11, align 4, !tbaa !9
  %42 = ashr i32 %41, 1
  %43 = load i32, ptr %8, align 4, !tbaa !9
  %44 = mul nsw i32 %42, %43
  %45 = load i32, ptr %10, align 4, !tbaa !9
  %46 = ashr i32 %45, 1
  %47 = add nsw i32 %44, %46
  %48 = load ptr, ptr %7, align 8, !tbaa !4
  %49 = getelementptr inbounds nuw %struct.VC2TransformContext, ptr %48, i32 0, i32 1
  store i32 %47, ptr %49, align 8, !tbaa !15
  %50 = load ptr, ptr %7, align 8, !tbaa !4
  %51 = getelementptr inbounds nuw %struct.VC2TransformContext, ptr %50, i32 0, i32 1
  %52 = load i32, ptr %51, align 8, !tbaa !15
  %53 = load ptr, ptr %7, align 8, !tbaa !4
  %54 = getelementptr inbounds nuw %struct.VC2TransformContext, ptr %53, i32 0, i32 0
  %55 = load ptr, ptr %54, align 8, !tbaa !12
  %56 = sext i32 %52 to i64
  %57 = getelementptr inbounds i32, ptr %55, i64 %56
  store ptr %57, ptr %54, align 8, !tbaa !12
  store i32 0, ptr %6, align 4
  br label %58

58:                                               ; preds = %40, %39
  %59 = load i32, ptr %6, align 4
  ret i32 %59
}