; Function Attrs: cold nounwind optsize uwtable
define range(i32 0, 2) i32 @ff_vc2enc_init_transforms(ptr noundef writeonly captures(none) initializes((0, 8), (16, 32), (40, 56)) %0, i32 noundef %1, i32 noundef %2, i32 noundef %3, i32 noundef %4) local_unnamed_addr #0 {
  %6 = getelementptr inbounds nuw i8, ptr %0, i64 16
  store ptr @vc2_subband_dwt_97, ptr %6, align 8, !tbaa !4
  %7 = getelementptr inbounds nuw i8, ptr %0, i64 24
  store ptr @vc2_subband_dwt_53, ptr %7, align 8, !tbaa !4
  %8 = getelementptr inbounds nuw i8, ptr %0, i64 40
  store ptr @vc2_subband_dwt_haar, ptr %8, align 8, !tbaa !4
  %9 = getelementptr inbounds nuw i8, ptr %0, i64 48
  store ptr @vc2_subband_dwt_haar_shift, ptr %9, align 8, !tbaa !4
  %10 = add nsw i32 %3, %1
  %11 = add nsw i32 %4, %2
  %12 = mul nsw i32 %11, %10
  %13 = sext i32 %12 to i64
  %14 = tail call noalias ptr @av_calloc(i64 noundef %13, i64 noundef 4) #3
  store ptr %14, ptr %0, align 8, !tbaa !8
  %.not = icmp eq ptr %14, null
  br i1 %.not, label %23, label %15

15:                                               ; preds = %5
  %16 = ashr i32 %4, 1
  %17 = mul nsw i32 %16, %1
  %18 = ashr i32 %3, 1
  %19 = add nsw i32 %17, %18
  %20 = getelementptr inbounds nuw i8, ptr %0, i64 8
  store i32 %19, ptr %20, align 8, !tbaa !12
  %21 = sext i32 %19 to i64
  %22 = getelementptr inbounds i32, ptr %14, i64 %21
  store ptr %22, ptr %0, align 8, !tbaa !8
  br label %23

23:                                               ; preds = %5, %15
  %.0 = phi i32 [ 0, %15 ], [ 1, %5 ]
  ret i32 %.0
}